; ModuleID = '16/766.cpp'
source_filename = "16/766.cpp"
target datalayout = "e-m:e-p270:32:32-p271:32:32-p272:64:64-i64:64-f80:128-n8:16:32:64-S128"
target triple = "x86_64-pc-linux-gnu"

%"class.std::ios_base::Init" = type { i8 }
%"class.std::basic_istream" = type { i32 (...)**, i64, %"class.std::basic_ios" }
%"class.std::basic_ios" = type { %"class.std::ios_base", %"class.std::basic_ostream"*, i8, i8, %"class.std::basic_streambuf"*, %"class.std::ctype"*, %"class.std::num_put"*, %"class.std::num_get"* }
%"class.std::ios_base" = type { i32 (...)**, i64, i64, i32, i32, i32, %"struct.std::ios_base::_Callback_list"*, %"struct.std::ios_base::_Words", [8 x %"struct.std::ios_base::_Words"], i32, %"struct.std::ios_base::_Words"*, %"class.std::locale" }
%"struct.std::ios_base::_Callback_list" = type { %"struct.std::ios_base::_Callback_list"*, void (i32, %"class.std::ios_base"*, i32)*, i32, i32 }
%"struct.std::ios_base::_Words" = type { i8*, i64 }
%"class.std::locale" = type { %"class.std::locale::_Impl"* }
%"class.std::locale::_Impl" = type { i32, %"class.std::locale::facet"**, i64, %"class.std::locale::facet"**, i8** }
%"class.std::locale::facet" = type <{ i32 (...)**, i32, [4 x i8] }>
%"class.std::basic_ostream" = type { i32 (...)**, %"class.std::basic_ios" }
%"class.std::basic_streambuf" = type { i32 (...)**, i8*, i8*, i8*, i8*, i8*, i8*, %"class.std::locale" }
%"class.std::ctype" = type <{ %"class.std::locale::facet.base", [4 x i8], %struct.__locale_struct*, i8, [7 x i8], i32*, i32*, i16*, i8, [256 x i8], [256 x i8], i8, [6 x i8] }>
%"class.std::locale::facet.base" = type <{ i32 (...)**, i32 }>
%struct.__locale_struct = type { [13 x %struct.__locale_data*], i16*, i32*, i32*, [13 x i8*] }
%struct.__locale_data = type opaque
%"class.std::num_put" = type { %"class.std::locale::facet.base", [4 x i8] }
%"class.std::num_get" = type { %"class.std::locale::facet.base", [4 x i8] }

@_ZStL8__ioinit = internal global %"class.std::ios_base::Init" zeroinitializer, align 1
@__dso_handle = external hidden global i8
@_ZSt3cin = external dso_local global %"class.std::basic_istream", align 8
@_ZSt4cout = external dso_local global %"class.std::basic_ostream", align 8
@.str = private unnamed_addr constant [6 x i8] c"00001\00", align 1
@llvm.global_ctors = appending global [1 x { i32, void ()*, i8* }] [{ i32, void ()*, i8* } { i32 65535, void ()* @_GLOBAL__sub_I_766.cpp, i8* null }]

; Function Attrs: noinline uwtable
define internal void @__cxx_global_var_init() #0 section ".text.startup" {
  call void @_ZNSt8ios_base4InitC1Ev(%"class.std::ios_base::Init"* @_ZStL8__ioinit)
  %1 = call i32 @__cxa_atexit(void (i8*)* bitcast (void (%"class.std::ios_base::Init"*)* @_ZNSt8ios_base4InitD1Ev to void (i8*)*), i8* getelementptr inbounds (%"class.std::ios_base::Init", %"class.std::ios_base::Init"* @_ZStL8__ioinit, i32 0, i32 0), i8* @__dso_handle) #3
  ret void
}

declare dso_local void @_ZNSt8ios_base4InitC1Ev(%"class.std::ios_base::Init"*) unnamed_addr #1

; Function Attrs: nounwind
declare dso_local void @_ZNSt8ios_base4InitD1Ev(%"class.std::ios_base::Init"*) unnamed_addr #2

; Function Attrs: nounwind
declare dso_local i32 @__cxa_atexit(void (i8*)*, i8*, i8*) #3

; Function Attrs: noinline norecurse uwtable
define dso_local i32 @main() #4 {
  %1 = alloca i32, align 4
  %2 = alloca i32, align 4
  %3 = alloca [10 x i32], align 16
  store i32 0, i32* %1, align 4
  %4 = call dereferenceable(280) %"class.std::basic_istream"* @_ZNSirsERi(%"class.std::basic_istream"* @_ZSt3cin, i32* dereferenceable(4) %2)
  %5 = load i32, i32* %2, align 4
  %6 = srem i32 %5, 10
  %7 = getelementptr inbounds [10 x i32], [10 x i32]* %3, i64 0, i64 0
  store i32 %6, i32* %7, align 16
  %8 = load i32, i32* %2, align 4
  %9 = srem i32 %8, 100
  %10 = sdiv i32 %9, 10
  %11 = getelementptr inbounds [10 x i32], [10 x i32]* %3, i64 0, i64 1
  store i32 %10, i32* %11, align 4
  %12 = load i32, i32* %2, align 4
  %13 = srem i32 %12, 1000
  %14 = sdiv i32 %13, 100
  %15 = getelementptr inbounds [10 x i32], [10 x i32]* %3, i64 0, i64 2
  store i32 %14, i32* %15, align 8
  %16 = load i32, i32* %2, align 4
  %17 = srem i32 %16, 10000
  %18 = sdiv i32 %17, 1000
  %19 = getelementptr inbounds [10 x i32], [10 x i32]* %3, i64 0, i64 3
  store i32 %18, i32* %19, align 4
  %20 = load i32, i32* %2, align 4
  %21 = icmp slt i32 %20, 10
  br i1 %21, label %22, label %28

22:                                               ; preds = %0
  %23 = load i32, i32* %2, align 4
  %24 = icmp sge i32 %23, 0
  br i1 %24, label %25, label %28

25:                                               ; preds = %22
  %26 = load i32, i32* %2, align 4
  %27 = call dereferenceable(272) %"class.std::basic_ostream"* @_ZNSolsEi(%"class.std::basic_ostream"* @_ZSt4cout, i32 %26)
  br label %85

28:                                               ; preds = %22, %0
  %29 = load i32, i32* %2, align 4
  %30 = icmp slt i32 %29, 100
  br i1 %30, label %31, label %41

31:                                               ; preds = %28
  %32 = load i32, i32* %2, align 4
  %33 = icmp sge i32 %32, 10
  br i1 %33, label %34, label %41

34:                                               ; preds = %31
  %35 = getelementptr inbounds [10 x i32], [10 x i32]* %3, i64 0, i64 0
  %36 = load i32, i32* %35, align 16
  %37 = call dereferenceable(272) %"class.std::basic_ostream"* @_ZNSolsEi(%"class.std::basic_ostream"* @_ZSt4cout, i32 %36)
  %38 = getelementptr inbounds [10 x i32], [10 x i32]* %3, i64 0, i64 1
  %39 = load i32, i32* %38, align 4
  %40 = call dereferenceable(272) %"class.std::basic_ostream"* @_ZNSolsEi(%"class.std::basic_ostream"* %37, i32 %39)
  br label %84

41:                                               ; preds = %31, %28
  %42 = load i32, i32* %2, align 4
  %43 = icmp slt i32 %42, 1000
  br i1 %43, label %44, label %57

44:                                               ; preds = %41
  %45 = load i32, i32* %2, align 4
  %46 = icmp sge i32 %45, 100
  br i1 %46, label %47, label %57

47:                                               ; preds = %44
  %48 = getelementptr inbounds [10 x i32], [10 x i32]* %3, i64 0, i64 0
  %49 = load i32, i32* %48, align 16
  %50 = call dereferenceable(272) %"class.std::basic_ostream"* @_ZNSolsEi(%"class.std::basic_ostream"* @_ZSt4cout, i32 %49)
  %51 = getelementptr inbounds [10 x i32], [10 x i32]* %3, i64 0, i64 1
  %52 = load i32, i32* %51, align 4
  %53 = call dereferenceable(272) %"class.std::basic_ostream"* @_ZNSolsEi(%"class.std::basic_ostream"* %50, i32 %52)
  %54 = getelementptr inbounds [10 x i32], [10 x i32]* %3, i64 0, i64 2
  %55 = load i32, i32* %54, align 8
  %56 = call dereferenceable(272) %"class.std::basic_ostream"* @_ZNSolsEi(%"class.std::basic_ostream"* %53, i32 %55)
  br label %83

57:                                               ; preds = %44, %41
  %58 = load i32, i32* %2, align 4
  %59 = icmp slt i32 %58, 10000
  br i1 %59, label %60, label %76

60:                                               ; preds = %57
  %61 = load i32, i32* %2, align 4
  %62 = icmp sge i32 %61, 1000
  br i1 %62, label %63, label %76

63:                                               ; preds = %60
  %64 = getelementptr inbounds [10 x i32], [10 x i32]* %3, i64 0, i64 0
  %65 = load i32, i32* %64, align 16
  %66 = call dereferenceable(272) %"class.std::basic_ostream"* @_ZNSolsEi(%"class.std::basic_ostream"* @_ZSt4cout, i32 %65)
  %67 = getelementptr inbounds [10 x i32], [10 x i32]* %3, i64 0, i64 1
  %68 = load i32, i32* %67, align 4
  %69 = call dereferenceable(272) %"class.std::basic_ostream"* @_ZNSolsEi(%"class.std::basic_ostream"* %66, i32 %68)
  %70 = getelementptr inbounds [10 x i32], [10 x i32]* %3, i64 0, i64 2
  %71 = load i32, i32* %70, align 8
  %72 = call dereferenceable(272) %"class.std::basic_ostream"* @_ZNSolsEi(%"class.std::basic_ostream"* %69, i32 %71)
  %73 = getelementptr inbounds [10 x i32], [10 x i32]* %3, i64 0, i64 3
  %74 = load i32, i32* %73, align 4
  %75 = call dereferenceable(272) %"class.std::basic_ostream"* @_ZNSolsEi(%"class.std::basic_ostream"* %72, i32 %74)
  br label %82

76:                                               ; preds = %60, %57
  %77 = load i32, i32* %2, align 4
  %78 = icmp eq i32 %77, 10000
  br i1 %78, label %79, label %81

79:                                               ; preds = %76
  %80 = call dereferenceable(272) %"class.std::basic_ostream"* @_ZStlsISt11char_traitsIcEERSt13basic_ostreamIcT_ES5_PKc(%"class.std::basic_ostream"* dereferenceable(272) @_ZSt4cout, i8* getelementptr inbounds ([6 x i8], [6 x i8]* @.str, i64 0, i64 0))
  br label %81

81:                                               ; preds = %79, %76
  br label %82

82:                                               ; preds = %81, %63
  br label %83

83:                                               ; preds = %82, %47
  br label %84

84:                                               ; preds = %83, %34
  br label %85

85:                                               ; preds = %84, %25
  ret i32 0
}

declare dso_local dereferenceable(280) %"class.std::basic_istream"* @_ZNSirsERi(%"class.std::basic_istream"*, i32* dereferenceable(4)) #1

declare dso_local dereferenceable(272) %"class.std::basic_ostream"* @_ZNSolsEi(%"class.std::basic_ostream"*, i32) #1

declare dso_local dereferenceable(272) %"class.std::basic_ostream"* @_ZStlsISt11char_traitsIcEERSt13basic_ostreamIcT_ES5_PKc(%"class.std::basic_ostream"* dereferenceable(272), i8*) #1

; Function Attrs: noinline uwtable
define internal void @_GLOBAL__sub_I_766.cpp() #0 section ".text.startup" {
  call void @__cxx_global_var_init()
  ret void
}


!llvm.module.flags = !{!0}
!llvm.ident = !{!1}

!0 = !{i32 1, !"wchar_size", i32 4}
!1 = !{!"clang version 10.0.0-4ubuntu1 "}
